; Function Attrs: mustprogress uwtable
define void @_ZN32pxrInternal_v0_24__pxrReserved__27UsdImagingDataSourcePurposeC2ERKNS_17UsdAttributeQueryERKNS_32UsdImagingDataSourceStageGlobalsE(ptr noundef nonnull align 8 dereferenceable(136) initializes((0, 8)) %0, ptr noundef nonnull align 8 dereferenceable(120) %1, ptr noundef nonnull align 8 dereferenceable(8) %2) unnamed_addr #0 align 2 personality ptr @__gxx_personality_v0 {
  store ptr getelementptr inbounds nuw inrange(-16, 32) (i8, ptr @_ZTVN32pxrInternal_v0_24__pxrReserved__27UsdImagingDataSourcePurposeE, i64 16), ptr %0, align 8
  %4 = getelementptr inbounds nuw i8, ptr %0, i64 8
  invoke void @_ZN32pxrInternal_v0_24__pxrReserved__17UsdAttributeQueryC1ERKS0_(ptr noundef nonnull align 8 dereferenceable(120) %4, ptr noundef nonnull align 8 dereferenceable(120) %1)
          to label %5 unwind label %7

5:                                                ; preds = %3
  %6 = getelementptr inbounds nuw i8, ptr %0, i64 128
  store ptr %2, ptr %6, align 8
  ret void

7:                                                ; preds = %3
  %8 = landingpad { ptr, i32 }
          cleanup
  tail call void @_ZN32pxrInternal_v0_24__pxrReserved__16HdDataSourceBaseD2Ev(ptr noundef nonnull align 8 dereferenceable(8) %0) #23
  resume { ptr, i32 } %8
}